 - The Endpoint CA Cert ------------------------------------------------------------------------------------

Certificate:
    Data:
        Version: 3 (0x2)
        Serial Number: 18283436985306845408 (0xfdbbd1117e7410e0)
    Signature Algorithm: sha256WithRSAEncryption
        Issuer: C=US, ST=California, L=Cupertino, O=Mist Systems Inc., CN=Mist Systems Internal Endpoint CA
        Validity
            Not Before: Oct 11 22:29:30 2015 GMT
            Not After : Oct 11 22:29:30 2025 GMT
        Subject: C=US, ST=California, L=Cupertino, O=Mist Systems Inc., CN=Mist Systems Internal Endpoint CA
        Subject Public Key Info:
            Public Key Algorithm: rsaEncryption
                Public-Key: (4096 bit)
                Modulus:
                    00:df:f8:83:7d:5f:42:c7:41:4f:71:8a:b3:20:a3:
                    99:e6:b7:ef:a2:07:98:e6:00:27:3b:75:ea:7a:af:
                    c8:67:73:83:c5:2f:81:5e:30:66:d1:f4:06:57:ee:
                    ae:66:78:01:dd:a0:bd:ca:83:4a:fa:3b:68:e5:c4:
                    fa:80:a3:92:68:2d:90:ac:ec:74:73:bb:99:24:03:
                    6d:6e:74:c7:10:bc:b0:4e:5b:9d:a7:7d:6d:e4:af:
                    5a:a4:38:4f:0e:c6:e2:93:da:56:73:91:d9:c1:61:
                    f0:40:9f:91:d5:b2:e2:ab:09:5e:93:16:da:73:69:
                    37:c5:87:20:fb:e9:fb:60:1c:f9:b3:2b:62:94:1c:
                    b6:2b:fa:5c:3a:ac:ed:19:e5:17:6f:d7:70:0c:01:
                    d0:82:e2:17:ce:24:a9:2c:0e:97:07:fc:f5:d9:fc:
                    56:2a:54:68:04:8d:29:66:f3:15:5f:69:ed:b6:50:
                    30:38:60:43:07:40:d0:08:a9:61:55:33:63:31:ce:
                    dd:5e:16:e0:0d:e5:64:7c:6a:f7:8e:0b:86:2a:68:
                    cd:f2:01:ee:3e:33:0a:a0:98:33:e9:6c:88:8b:b7:
                    f9:50:55:a9:53:cb:fa:b0:61:36:94:dd:00:76:bb:
                    20:dd:cd:e8:aa:40:07:b7:c7:77:c5:12:70:49:ba:
                    0d:db:27:0f:78:f0:10:d9:da:ae:05:3c:27:26:bf:
                    c9:91:d0:ce:6d:a3:77:a9:e0:f8:29:61:74:bd:57:
                    78:81:b2:4c:e9:df:dc:5a:98:75:0d:ab:ac:cc:1e:
                    ee:a7:02:dc:28:bc:eb:eb:75:e0:c3:bd:8a:7d:51:
                    12:58:21:70:d8:9d:b2:2e:8b:2d:c5:e1:92:df:a4:
                    de:4b:84:25:59:91:0f:e5:9b:3f:20:a7:d1:99:d1:
                    b7:08:46:f2:ef:15:b2:ef:3f:3a:3e:74:e1:04:ae:
                    4a:71:fe:12:00:0f:17:71:0b:3d:54:e8:03:19:13:
                    c3:33:f9:ad:4d:fa:07:8e:9b:26:82:9c:0a:6f:dc:
                    05:81:4d:fe:a2:95:fc:0d:78:a4:94:6b:d9:d2:2a:
                    ae:22:a5:ba:38:da:15:b8:a8:28:f8:80:1a:ca:80:
                    3e:82:20:1b:82:74:97:48:e1:63:77:7a:e6:89:7d:
                    33:2a:68:cb:fb:3f:de:66:a9:d8:72:53:03:b6:cd:
                    e0:a8:bf:fd:29:46:97:30:01:01:ac:b1:71:fb:d0:
                    82:9d:39:d0:30:02:6b:54:70:4b:f9:94:82:58:cc:
                    84:70:30:cb:1c:26:9b:ff:fe:27:bc:94:c5:f6:38:
                    5e:a9:1e:01:a2:80:96:fb:e3:e1:68:af:ef:3d:25:
                    94:6a:f1
                Exponent: 65537 (0x10001)
        X509v3 extensions:
            X509v3 Subject Key Identifier: 
                78:13:94:D7:68:EA:C9:3F:28:06:22:3F:AE:27:80:2D:46:05:89:7A
            X509v3 Authority Key Identifier: 
                keyid:78:13:94:D7:68:EA:C9:3F:28:06:22:3F:AE:27:80:2D:46:05:89:7A

            X509v3 Basic Constraints: 
                CA:TRUE
    Signature Algorithm: sha256WithRSAEncryption
         8f:9d:02:b2:9c:48:4e:c2:52:19:b2:ac:5d:ff:6d:be:ff:82:
         00:0c:88:6c:28:4e:b1:af:fb:f0:40:85:d5:b4:5e:4b:4f:67:
         f8:20:5a:66:dd:6a:94:65:50:9a:0e:1c:55:26:34:1e:76:f6:
         55:f7:b3:c6:94:9a:f1:32:91:4a:88:a8:f3:54:ff:44:39:5f:
         14:a7:32:0a:cb:27:5d:aa:10:71:0b:a7:a9:ad:93:14:b2:df:
         39:66:84:88:40:0d:df:9a:2d:00:9f:c9:6b:c6:d0:53:a7:ed:
         d9:f7:89:eb:00:f6:07:a8:b2:9c:05:71:63:f3:ce:2a:9e:13:
         c8:74:f8:d9:c7:cb:d5:09:b4:51:5d:08:4a:a3:20:45:f0:17:
         93:1d:b3:41:a5:1d:fb:0b:72:d7:28:9b:6a:ae:d3:3e:a6:6d:
         f5:94:27:37:95:e4:88:99:67:47:f3:43:fe:b5:03:27:ea:68:
         60:ca:b6:af:bb:06:d2:8d:90:99:1a:e8:11:d6:5b:e1:7c:d6:
         90:5f:4c:da:d4:c0:a5:fc:8b:25:c1:78:55:4d:96:a3:29:0d:
         17:98:68:05:d0:1d:7d:96:7c:a6:20:d2:9e:94:59:6d:05:88:
         a8:98:4c:0a:66:e0:bd:c8:8a:c7:53:eb:78:08:d3:f8:97:d8:
         f8:1c:2f:1e:18:38:6d:b4:37:93:a6:62:c3:8e:9f:20:2d:c6:
         39:08:c7:4f:7a:cf:39:44:a6:34:fc:de:1f:08:1c:bc:e8:2c:
         02:36:63:2d:dc:1d:fc:d5:40:d9:64:18:b4:c5:68:49:85:32:
         75:e3:29:9e:36:a2:eb:da:1c:a1:a5:d5:23:9b:bd:6e:a1:8b:
         16:c9:32:05:5d:4b:42:4c:de:eb:d3:cc:bf:bc:c8:67:42:53:
         22:b8:3f:83:77:d1:52:78:f4:62:16:ea:1b:88:e1:ca:6e:28:
         1c:ba:e2:e8:bb:d7:f8:af:ba:6b:89:8f:8f:dd:5d:b8:a3:a9:
         43:a5:f2:d3:4c:23:a1:6a:e2:8d:1d:61:34:ec:46:24:1f:e5:
         e2:3e:2d:f1:8f:ba:3a:91:01:69:ff:54:5d:f9:c8:0e:9a:4c:
         09:46:f4:9e:86:7d:b0:07:bb:af:f7:4e:19:14:25:ba:4e:99:
         b5:95:6b:39:a7:c1:a9:3b:1d:af:82:93:51:a9:e5:25:ff:03:
         78:d0:47:21:ee:e1:4c:f9:16:de:dc:99:fc:de:c0:34:1b:a7:
         37:b1:3c:94:e1:00:49:fe:bb:04:19:07:e8:50:43:0b:67:f0:
         16:ec:8b:b5:27:55:97:d5:53:d6:67:d0:eb:a8:30:ea:7a:bd:
         d4:bd:14:1c:62:78:bc:c5
-----BEGIN CERTIFICATE-----
MIIFzzCCA7egAwIBAgIJAP270RF+dBDgMA0GCSqGSIb3DQEBCwUAMH4xCzAJBgNV
BAYTAlVTMRMwEQYDVQQIDApDYWxpZm9ybmlhMRIwEAYDVQQHDAlDdXBlcnRpbm8x
GjAYBgNVBAoMEU1pc3QgU3lzdGVtcyBJbmMuMSowKAYDVQQDDCFNaXN0IFN5c3Rl
bXMgSW50ZXJuYWwgRW5kcG9pbnQgQ0EwHhcNMTUxMDExMjIyOTMwWhcNMjUxMDEx
MjIyOTMwWjB+MQswCQYDVQQGEwJVUzETMBEGA1UECAwKQ2FsaWZvcm5pYTESMBAG
A1UEBwwJQ3VwZXJ0aW5vMRowGAYDVQQKDBFNaXN0IFN5c3RlbXMgSW5jLjEqMCgG
A1UEAwwhTWlzdCBTeXN0ZW1zIEludGVybmFsIEVuZHBvaW50IENBMIICIjANBgkq
hkiG9w0BAQEFAAOCAg8AMIICCgKCAgEA3/iDfV9Cx0FPcYqzIKOZ5rfvogeY5gAn
O3Xqeq/IZ3ODxS+BXjBm0fQGV+6uZngB3aC9yoNK+jto5cT6gKOSaC2QrOx0c7uZ
JANtbnTHELywTludp31t5K9apDhPDsbik9pWc5HZwWHwQJ+R1bLiqwlekxbac2k3
xYcg++n7YBz5sytilBy2K/pcOqztGeUXb9dwDAHQguIXziSpLA6XB/z12fxWKlRo
BI0pZvMVX2nttlAwOGBDB0DQCKlhVTNjMc7dXhbgDeVkfGr3jguGKmjN8gHuPjMK
oJgz6WyIi7f5UFWpU8v6sGE2lN0Adrsg3c3oqkAHt8d3xRJwSboN2ycPePAQ2dqu
BTwnJr/JkdDObaN3qeD4KWF0vVd4gbJM6d/cWph1DauszB7upwLcKLzr63Xgw72K
fVESWCFw2J2yLostxeGS36TeS4QlWZEP5Zs/IKfRmdG3CEby7xWy7z86PnThBK5K
cf4SAA8XcQs9VOgDGRPDM/mtTfoHjpsmgpwKb9wFgU3+opX8DXiklGvZ0iquIqW6
ONoVuKgo+IAayoA+giAbgnSXSOFjd3rmiX0zKmjL+z/eZqnYclMDts3gqL/9KUaX
MAEBrLFx+9CCnTnQMAJrVHBL+ZSCWMyEcDDLHCab//4nvJTF9jheqR4BooCW++Ph
aK/vPSWUavECAwEAAaNQME4wHQYDVR0OBBYEFHgTlNdo6sk/KAYiP64ngC1GBYl6
MB8GA1UdIwQYMBaAFHgTlNdo6sk/KAYiP64ngC1GBYl6MAwGA1UdEwQFMAMBAf8w
DQYJKoZIhvcNAQELBQADggIBAI+dArKcSE7CUhmyrF3/bb7/ggAMiGwoTrGv+/BA
hdW0XktPZ/ggWmbdapRlUJoOHFUmNB529lX3s8aUmvEykUqIqPNU/0Q5XxSnMgrL
J12qEHELp6mtkxSy3zlmhIhADd+aLQCfyWvG0FOn7dn3iesA9geospwFcWPzziqe
E8h0+NnHy9UJtFFdCEqjIEXwF5Mds0GlHfsLctcom2qu0z6mbfWUJzeV5IiZZ0fz
Q/61AyfqaGDKtq+7BtKNkJka6BHWW+F81pBfTNrUwKX8iyXBeFVNlqMpDReYaAXQ
HX2WfKYg0p6UWW0FiKiYTApm4L3IisdT63gI0/iX2PgcLx4YOG20N5OmYsOOnyAt
xjkIx096zzlEpjT83h8IHLzoLAI2Yy3cHfzVQNlkGLTFaEmFMnXjKZ42ouvaHKGl
1SObvW6hixbJMgVdS0JM3uvTzL+8yGdCUyK4P4N30VJ49GIW6huI4cpuKBy64ui7
1/ivumuJj4/dXbijqUOl8tNMI6Fq4o0dYTTsRiQf5eI+LfGPujqRAWn/VF35yA6a
TAlG9J6GfbAHu6/3ThkUJbpOmbWVazmnwak7Ha+Ck1Gp5SX/A3jQRyHu4Uz5Ft7c
mfzewDQbpzexPJThAEn+uwQZB+hQQwtn8Bbsi7UnVZfVU9Zn0OuoMOp6vdS9FBxi
eLzF
-----END CERTIFICATE-----
