Certificate:
    Data:
        Version: 3 (0x2)
        Serial Number:
            e9:65:ca:6d:3f:75:12:b3
        Signature Algorithm: sha256WithRSAEncryption
        Issuer: C=US, ST=California, L=Cupertino, O=Mist Systems, Inc., OU=Mist Systems Certificate Authority/emailAddress=info@mist.com
        Validity
            Not Before: Sep 22 06:16:59 2015 GMT
            Not After : Sep 19 06:16:59 2025 GMT
        Subject: C=US, ST=California, L=Cupertino, O=Mist Systems, Inc., OU=Mist Systems Certificate Authority/emailAddress=info@mist.com
        Subject Public Key Info:
            Public Key Algorithm: rsaEncryption
            RSA Public Key: (4096 bit)
                Modulus (4096 bit):
                    00:c8:6d:4b:9c:9c:a4:7b:ff:be:16:d8:3d:a0:87:
                    64:c2:07:e3:c7:18:56:37:3a:c3:6b:52:3a:36:3b:
                    a6:fd:88:8c:3e:cd:02:97:63:1e:bc:7d:7e:ef:3a:
                    58:f2:7c:59:54:cf:11:80:d1:89:d9:b1:20:20:76:
                    20:4d:23:69:2d:74:eb:2b:7f:ad:fe:f4:f1:ff:bf:
                    7f:2a:8d:f2:71:e4:85:61:04:72:bc:e0:2c:85:fa:
                    34:b5:a6:90:97:74:ee:5f:d4:f4:23:6a:cc:c3:b8:
                    01:ad:e6:01:5e:b0:a5:0f:af:24:8b:ef:93:4c:0d:
                    10:3d:4e:fd:b5:55:88:e0:da:26:fe:63:3d:f5:7d:
                    92:62:6d:45:35:68:29:bd:87:7c:28:01:cb:99:61:
                    1a:3e:1d:ae:47:42:56:9f:39:33:7d:ed:05:06:36:
                    2d:ac:c7:37:ca:66:21:39:df:15:7b:e0:16:81:e3:
                    f0:b9:e6:6a:4a:da:99:bc:80:9b:6c:5e:45:d5:2c:
                    7e:92:14:cc:f1:19:1b:14:f3:c0:32:e2:f0:dd:e9:
                    bc:87:b6:2f:d9:2e:24:8f:6c:94:28:f4:bf:b4:b1:
                    05:38:9e:78:7d:c3:c0:8e:86:67:a7:7b:79:60:b1:
                    0e:a8:19:cb:5c:5d:bc:46:3d:f0:c0:61:aa:32:bb:
                    eb:57:b5:8d:f4:bc:6f:b5:6f:56:95:cd:e2:d9:91:
                    9d:96:a6:d4:97:5e:fb:68:b0:64:76:a9:eb:23:be:
                    5e:f0:15:ca:a0:50:8b:14:13:b6:f7:4a:a7:b8:8d:
                    90:7a:97:0c:70:7b:d4:e0:58:55:53:a5:bb:88:d7:
                    ab:ec:dd:e7:06:f9:75:2c:36:64:22:c3:b5:72:0f:
                    20:c8:9c:f4:7a:21:39:59:c5:18:f7:77:50:4e:de:
                    55:85:73:c9:e7:31:f1:7a:b2:3a:c5:a7:5e:7f:93:
                    cf:62:2b:b1:b5:b9:20:f4:7a:42:a7:4d:0f:f0:44:
                    2d:87:00:62:39:cd:a7:88:62:56:b3:20:a0:48:ff:
                    ad:e7:9d:f9:fa:03:b5:49:1b:d4:a6:58:c2:10:c2:
                    2d:e6:45:4b:e2:0c:bf:91:0f:6a:58:18:0a:8c:4c:
                    d2:e3:7e:9a:ca:ba:e0:e9:95:2b:6c:bd:50:19:a0:
                    5c:49:ca:ab:76:8c:9a:40:bd:e2:dc:cc:55:62:6f:
                    2a:6b:4d:37:6c:c9:9d:90:d2:1f:d3:2b:cf:7c:6d:
                    32:fd:e2:69:69:11:33:e6:a1:ad:88:3c:cd:c3:cd:
                    7e:6c:92:e4:89:11:c5:ac:c3:73:7b:a1:3a:26:7f:
                    ee:bb:4c:f9:18:81:42:01:fc:4e:72:c1:16:d6:56:
                    f9:da:33
                Exponent: 65537 (0x10001)
        X509v3 extensions:
            X509v3 Subject Key Identifier: 
                C5:44:AA:25:6C:E1:5A:F2:E1:34:A6:43:A1:71:C0:F1:89:79:ED:85
            X509v3 Authority Key Identifier: 
                keyid:C5:44:AA:25:6C:E1:5A:F2:E1:34:A6:43:A1:71:C0:F1:89:79:ED:85
                DirName:/C=US/ST=California/L=Cupertino/O=Mist Systems, Inc./OU=Mist Systems Certificate Authority/emailAddress=info@mist.com
                serial:E9:65:CA:6D:3F:75:12:B3

            X509v3 Basic Constraints: 
                CA:TRUE
    Signature Algorithm: sha256WithRSAEncryption
        c4:2c:7d:44:fc:92:29:4b:44:81:8a:c1:9b:1e:ab:07:12:d4:
        9b:b7:9f:4a:eb:8e:54:6c:cb:3d:70:4e:5a:ca:a6:d6:22:e1:
        94:b8:32:3d:7c:d6:ab:78:9e:87:a1:1e:15:54:b8:16:eb:68:
        dd:63:9d:50:c9:00:ac:4a:1e:d4:1f:17:1e:d7:28:36:82:87:
        4e:28:f2:fb:71:8d:d3:28:b7:3b:b0:39:83:11:4d:f5:80:d0:
        53:e8:79:d3:9b:95:a9:bd:8b:74:b7:2b:00:62:1c:b3:e6:f9:
        9c:2b:15:fd:33:ac:b2:a7:e8:ed:cb:a7:ef:be:eb:68:7b:e1:
        d2:d1:32:da:fd:42:e9:df:b5:1d:87:41:9e:c1:80:58:4e:ea:
        f1:38:de:b3:de:a7:49:6d:41:7a:2d:06:a4:e8:86:40:4b:b2:
        e1:bc:d6:c6:da:87:8c:d0:59:dd:35:cc:cf:30:76:8c:9c:3f:
        c4:d8:4e:45:8b:a6:cc:b3:5a:80:c2:a1:be:41:7d:c6:22:d4:
        7d:91:d7:0b:0a:7f:3c:4e:ad:b2:6d:25:7c:b3:78:2f:f3:c0:
        2c:18:e1:69:68:3c:97:4d:d3:2c:42:05:4f:d5:b0:7b:9f:e3:
        7e:86:00:00:b6:79:6a:ec:57:73:37:da:99:1e:81:b9:66:84:
        55:f5:0d:29:b8:07:0e:79:86:43:10:4d:5a:92:16:e5:29:5a:
        8f:25:f1:d7:53:a3:4e:86:77:7f:87:93:c9:dd:5d:76:0f:b1:
        8c:38:e2:e1:6d:47:ec:ed:23:ca:ff:19:54:ef:2d:66:66:7e:
        ef:24:0e:81:e2:54:d8:e4:c6:e0:03:8a:75:1c:7d:4a:eb:82:
        da:b4:ab:6b:83:ec:0d:8e:af:8d:d9:0b:13:28:cf:f6:8a:7e:
        cc:74:dc:77:59:9c:09:67:5d:78:2f:20:74:cb:45:34:d4:ef:
        fd:f5:a6:95:62:fb:a5:0e:67:98:94:ff:bd:9b:3a:0b:fe:13:
        f7:18:30:87:ab:b0:be:9c:56:dc:42:ad:c2:2a:7a:fa:db:c1:
        b0:d8:1d:e0:f0:67:31:4c:87:45:c4:88:66:83:37:b2:9c:14:
        ae:b2:3f:46:81:43:ef:71:fa:fa:c7:ad:c6:23:12:44:d5:27:
        e5:91:6b:a7:26:ea:27:9d:d9:cf:99:10:e3:38:d5:e1:1e:bf:
        c0:73:63:ac:f8:e0:e5:a3:a6:d6:ec:12:d1:12:34:10:af:1c:
        52:94:94:46:3f:43:1f:74:36:ee:87:01:4f:e9:df:95:1a:39:
        ef:e0:af:de:0e:ea:ad:5a:3e:77:ac:d1:f6:e9:43:50:20:0a:
        fd:16:9a:93:a8:75:35:44
-----BEGIN CERTIFICATE-----
MIIGyjCCBLKgAwIBAgIJAOllym0/dRKzMA0GCSqGSIb3DQEBCwUAMIGeMQswCQYD
VQQGEwJVUzETMBEGA1UECBMKQ2FsaWZvcm5pYTESMBAGA1UEBxMJQ3VwZXJ0aW5v
MRswGQYDVQQKExJNaXN0IFN5c3RlbXMsIEluYy4xKzApBgNVBAsTIk1pc3QgU3lz
dGVtcyBDZXJ0aWZpY2F0ZSBBdXRob3JpdHkxHDAaBgkqhkiG9w0BCQEWDWluZm9A
bWlzdC5jb20wHhcNMTUwOTIyMDYxNjU5WhcNMjUwOTE5MDYxNjU5WjCBnjELMAkG
A1UEBhMCVVMxEzARBgNVBAgTCkNhbGlmb3JuaWExEjAQBgNVBAcTCUN1cGVydGlu
bzEbMBkGA1UEChMSTWlzdCBTeXN0ZW1zLCBJbmMuMSswKQYDVQQLEyJNaXN0IFN5
c3RlbXMgQ2VydGlmaWNhdGUgQXV0aG9yaXR5MRwwGgYJKoZIhvcNAQkBFg1pbmZv
QG1pc3QuY29tMIICIjANBgkqhkiG9w0BAQEFAAOCAg8AMIICCgKCAgEAyG1LnJyk
e/++Ftg9oIdkwgfjxxhWNzrDa1I6Njum/YiMPs0Cl2MevH1+7zpY8nxZVM8RgNGJ
2bEgIHYgTSNpLXTrK3+t/vTx/79/Ko3yceSFYQRyvOAshfo0taaQl3TuX9T0I2rM
w7gBreYBXrClD68ki++TTA0QPU79tVWI4Nom/mM99X2SYm1FNWgpvYd8KAHLmWEa
Ph2uR0JWnzkzfe0FBjYtrMc3ymYhOd8Ve+AWgePwueZqStqZvICbbF5F1Sx+khTM
8RkbFPPAMuLw3em8h7Yv2S4kj2yUKPS/tLEFOJ54fcPAjoZnp3t5YLEOqBnLXF28
Rj3wwGGqMrvrV7WN9LxvtW9Wlc3i2ZGdlqbUl177aLBkdqnrI75e8BXKoFCLFBO2
90qnuI2QepcMcHvU4FhVU6W7iNer7N3nBvl1LDZkIsO1cg8gyJz0eiE5WcUY93dQ
Tt5VhXPJ5zHxerI6xadef5PPYiuxtbkg9HpCp00P8EQthwBiOc2niGJWsyCgSP+t
5535+gO1SRvUpljCEMIt5kVL4gy/kQ9qWBgKjEzS436ayrrg6ZUrbL1QGaBcScqr
doyaQL3i3MxVYm8qa003bMmdkNIf0yvPfG0y/eJpaREz5qGtiDzNw81+bJLkiRHF
rMNze6E6Jn/uu0z5GIFCAfxOcsEW1lb52jMCAwEAAaOCAQcwggEDMB0GA1UdDgQW
BBTFRKolbOFa8uE0pkOhccDxiXnthTCB0wYDVR0jBIHLMIHIgBTFRKolbOFa8uE0
pkOhccDxiXnthaGBpKSBoTCBnjELMAkGA1UEBhMCVVMxEzARBgNVBAgTCkNhbGlm
b3JuaWExEjAQBgNVBAcTCUN1cGVydGlubzEbMBkGA1UEChMSTWlzdCBTeXN0ZW1z
LCBJbmMuMSswKQYDVQQLEyJNaXN0IFN5c3RlbXMgQ2VydGlmaWNhdGUgQXV0aG9y
aXR5MRwwGgYJKoZIhvcNAQkBFg1pbmZvQG1pc3QuY29tggkA6WXKbT91ErMwDAYD
VR0TBAUwAwEB/zANBgkqhkiG9w0BAQsFAAOCAgEAxCx9RPySKUtEgYrBmx6rBxLU
m7efSuuOVGzLPXBOWsqm1iLhlLgyPXzWq3ieh6EeFVS4Futo3WOdUMkArEoe1B8X
HtcoNoKHTijy+3GN0yi3O7A5gxFN9YDQU+h505uVqb2LdLcrAGIcs+b5nCsV/TOs
sqfo7cun777raHvh0tEy2v1C6d+1HYdBnsGAWE7q8Tjes96nSW1Bei0GpOiGQEuy
4bzWxtqHjNBZ3TXMzzB2jJw/xNhORYumzLNagMKhvkF9xiLUfZHXCwp/PE6tsm0l
fLN4L/PALBjhaWg8l03TLEIFT9Wwe5/jfoYAALZ5auxXczfamR6BuWaEVfUNKbgH
DnmGQxBNWpIW5SlajyXx11OjToZ3f4eTyd1ddg+xjDji4W1H7O0jyv8ZVO8tZmZ+
7yQOgeJU2OTG4AOKdRx9SuuC2rSra4PsDY6vjdkLEyjP9op+zHTcd1mcCWddeC8g
dMtFNNTv/fWmlWL7pQ5nmJT/vZs6C/4T9xgwh6uwvpxW3EKtwip6+tvBsNgd4PBn
MUyHRcSIZoM3spwUrrI/RoFD73H6+setxiMSRNUn5ZFrpybqJ53Zz5kQ4zjV4R6/
wHNjrPjg5aOm1uwS0RI0EK8cUpSURj9DH3Q27ocBT+nflRo57+Cv3g7qrVo+d6zR
9ulDUCAK/Raak6h1NUQ=
-----END CERTIFICATE-----
