Certificate:
    Data:
        Version: 3 (0x2)
        Serial Number: 12920138914712004400 (0xb34d8de39c1c2730)
    Signature Algorithm: sha256WithRSAEncryption
        Issuer: C=US, ST=CA, L=Santa Cruz, O=Mist Systems, OU=testing, CN=Nic Dade/emailAddress=nic.dade@mistsys.com
        Validity
            Not Before: Dec  3 06:14:13 2014 GMT
            Not After : Nov 30 06:14:13 2024 GMT
        Subject: C=US, ST=CA, L=Santa Cruz, O=Mist Systems, OU=testing, CN=Nic Dade/emailAddress=nic.dade@mistsys.com
        Subject Public Key Info:
            Public Key Algorithm: rsaEncryption
                Public-Key: (2048 bit)
                Modulus:
                    00:d0:28:d8:cd:e0:d4:fe:68:86:33:a7:32:9d:62:
                    99:36:3e:69:d0:4d:75:57:6a:e4:d0:f2:36:6c:00:
                    f4:b7:13:bb:a3:16:2a:ac:dc:29:ba:f2:80:c6:47:
                    de:ee:1f:46:7c:ce:6f:26:54:92:49:b8:b1:df:85:
                    c4:7f:00:b3:cb:11:f6:74:b2:6d:76:6c:ff:34:69:
                    85:d3:3b:53:99:8e:19:de:38:1e:07:d3:9c:30:c6:
                    2d:8f:fe:b7:76:96:cc:6f:11:ed:91:10:2c:a4:68:
                    a9:d1:64:b9:fe:24:02:3e:6f:94:cd:b2:e8:47:e3:
                    cf:a0:a4:9a:04:0b:f0:f4:24:4b:51:88:0d:54:d7:
                    1f:78:48:c3:dd:2b:b4:88:d4:28:a1:40:b3:2d:8b:
                    fe:e7:a5:6d:7c:ec:81:53:f0:3e:5c:5d:aa:fb:5b:
                    d1:69:18:f5:d5:b2:21:c2:a7:2a:62:af:e2:f5:2c:
                    51:3c:b5:54:56:be:87:ca:b7:5e:f3:b7:59:3a:7a:
                    e0:e8:2e:65:2e:14:70:2f:e8:7d:3a:72:6d:ef:da:
                    14:5f:c7:96:4c:9b:10:82:d2:b9:df:be:32:33:41:
                    82:56:ed:61:58:6b:8e:21:55:47:88:f1:ee:3f:d3:
                    9f:6c:f2:3d:ab:76:3b:5d:52:f3:c9:6d:9f:e8:5a:
                    8d:ed
                Exponent: 65537 (0x10001)
        X509v3 extensions:
            X509v3 Subject Key Identifier: 
                C1:91:8F:ED:A1:9E:67:5B:8E:54:DF:85:B4:44:00:CB:D5:54:50:4F
            X509v3 Authority Key Identifier: 
                keyid:C1:91:8F:ED:A1:9E:67:5B:8E:54:DF:85:B4:44:00:CB:D5:54:50:4F

            X509v3 Basic Constraints: 
                CA:TRUE
    Signature Algorithm: sha256WithRSAEncryption
         32:87:3b:11:2d:e5:16:f9:ad:bd:69:7d:f0:39:d5:f4:ce:d1:
         d0:fc:e9:65:ee:5e:59:85:11:f3:aa:83:ba:2e:c5:34:65:7e:
         cb:77:f1:cd:ac:aa:12:be:c2:fe:a7:76:53:5d:2e:d5:9b:bc:
         a0:a0:0a:fe:a9:3b:32:30:da:e4:98:75:51:8c:61:a9:7d:4c:
         4f:c1:fa:6e:0a:f3:a8:21:13:ed:2d:e2:9d:80:57:e1:a9:74:
         f1:2c:b6:99:e8:99:05:3b:99:a0:f7:16:08:ea:e2:d9:cb:cb:
         ed:43:c6:b1:42:f5:bc:a2:9a:c3:33:b5:a6:13:71:91:1a:17:
         6d:80:fe:f8:c6:7d:57:ae:be:ee:1a:bd:7a:0d:6c:a1:a6:cf:
         7c:35:6e:99:a2:66:4b:2e:16:7e:1a:35:17:42:e9:a2:e8:a8:
         6c:f8:68:45:2c:1e:e3:f6:56:67:de:2c:e6:47:a5:c5:4f:b7:
         0a:72:1a:ca:ef:b3:5e:5b:8f:05:6e:b1:ff:2d:9c:75:99:fe:
         da:ff:9c:90:a7:c5:0f:c4:94:90:b4:d3:b0:0c:98:18:c2:08:
         02:d8:db:19:b5:9d:6a:9a:60:8a:55:0c:66:8f:a3:f4:92:f0:
         6d:b6:ef:3b:43:c3:7d:83:81:5e:85:8b:7e:51:f3:16:17:36:
         cd:1c:5b:50
-----BEGIN CERTIFICATE-----
MIID9TCCAt2gAwIBAgIJALNNjeOcHCcwMA0GCSqGSIb3DQEBCwUAMIGQMQswCQYD
VQQGEwJVUzELMAkGA1UECAwCQ0ExEzARBgNVBAcMClNhbnRhIENydXoxFTATBgNV
BAoMDE1pc3QgU3lzdGVtczEQMA4GA1UECwwHdGVzdGluZzERMA8GA1UEAwwITmlj
IERhZGUxIzAhBgkqhkiG9w0BCQEWFG5pYy5kYWRlQG1pc3RzeXMuY29tMB4XDTE0
MTIwMzA2MTQxM1oXDTI0MTEzMDA2MTQxM1owgZAxCzAJBgNVBAYTAlVTMQswCQYD
VQQIDAJDQTETMBEGA1UEBwwKU2FudGEgQ3J1ejEVMBMGA1UECgwMTWlzdCBTeXN0
ZW1zMRAwDgYDVQQLDAd0ZXN0aW5nMREwDwYDVQQDDAhOaWMgRGFkZTEjMCEGCSqG
SIb3DQEJARYUbmljLmRhZGVAbWlzdHN5cy5jb20wggEiMA0GCSqGSIb3DQEBAQUA
A4IBDwAwggEKAoIBAQDQKNjN4NT+aIYzpzKdYpk2PmnQTXVXauTQ8jZsAPS3E7uj
Fiqs3Cm68oDGR97uH0Z8zm8mVJJJuLHfhcR/ALPLEfZ0sm12bP80aYXTO1OZjhne
OB4H05wwxi2P/rd2lsxvEe2RECykaKnRZLn+JAI+b5TNsuhH48+gpJoEC/D0JEtR
iA1U1x94SMPdK7SI1CihQLMti/7npW187IFT8D5cXar7W9FpGPXVsiHCpypir+L1
LFE8tVRWvofKt17zt1k6euDoLmUuFHAv6H06cm3v2hRfx5ZMmxCC0rnfvjIzQYJW
7WFYa44hVUeI8e4/059s8j2rdjtdUvPJbZ/oWo3tAgMBAAGjUDBOMB0GA1UdDgQW
BBTBkY/toZ5nW45U34W0RADL1VRQTzAfBgNVHSMEGDAWgBTBkY/toZ5nW45U34W0
RADL1VRQTzAMBgNVHRMEBTADAQH/MA0GCSqGSIb3DQEBCwUAA4IBAQAyhzsRLeUW
+a29aX3wOdX0ztHQ/Oll7l5ZhRHzqoO6LsU0ZX7Ld/HNrKoSvsL+p3ZTXS7Vm7yg
oAr+qTsyMNrkmHVRjGGpfUxPwfpuCvOoIRPtLeKdgFfhqXTxLLaZ6JkFO5mg9xYI
6uLZy8vtQ8axQvW8oprDM7WmE3GRGhdtgP74xn1Xrr7uGr16DWyhps98NW6ZomZL
LhZ+GjUXQumi6Khs+GhFLB7j9lZn3izmR6XFT7cKchrK77NeW48FbrH/LZx1mf7a
/5yQp8UPxJSQtNOwDJgYwggC2NsZtZ1qmmCKVQxmj6P0kvBttu87Q8N9g4FehYt+
UfMWFzbNHFtQ
-----END CERTIFICATE-----


Certificate:
    Data:
        Version: 3 (0x2)
        Serial Number: 13536154095875688508 (0xbbda146ebd9e883c)
    Signature Algorithm: sha256WithRSAEncryption
        Issuer: C=US, ST=CA, L=Los Altos, O=Mist Systems, OU=engineering, CN=Nic Dade test CA/emailAddress=nic.dade@mistsys.com
        Validity
            Not Before: Dec  3 02:00:03 2014 GMT
            Not After : Nov 30 02:00:03 2024 GMT
        Subject: C=US, ST=CA, L=Los Altos, O=Mist Systems, OU=engineering, CN=Nic Dade test CA/emailAddress=nic.dade@mistsys.com
        Subject Public Key Info:
            Public Key Algorithm: rsaEncryption
                Public-Key: (2048 bit)
                Modulus:
                    00:d1:a5:f8:3d:14:29:b4:86:09:00:2a:a7:55:44:
                    ae:55:3c:07:23:a7:b8:c4:5a:74:9a:45:40:42:83:
                    5c:cf:6a:6e:05:ac:df:8a:ae:55:75:4c:34:51:23:
                    53:69:a2:87:1b:fe:40:28:f4:ac:3d:d8:2b:90:0d:
                    33:f0:77:4c:8e:c9:f8:4c:bd:73:8e:b4:0f:8f:80:
                    f7:5d:7d:1a:c4:01:f4:c7:d3:e2:fb:a3:8e:44:1e:
                    14:ef:0d:51:9c:bb:45:1b:d6:f2:51:48:76:9f:52:
                    a3:3d:de:f1:8e:46:fd:b8:a7:dd:d6:91:5c:df:2b:
                    6a:c9:4a:3f:c5:09:0e:ac:bc:1d:a9:60:2e:2f:df:
                    9f:cc:2c:61:b8:11:cf:97:08:3e:15:33:d5:b4:1f:
                    77:1b:cf:7c:73:4b:d5:0c:b3:1f:93:c8:ff:63:a3:
                    6b:fa:49:33:ef:d2:81:ab:99:92:5e:88:f0:3e:17:
                    49:f1:97:a9:08:ab:39:00:b0:01:35:c7:00:82:a1:
                    3c:64:5e:bb:af:a2:95:38:90:1c:19:2f:27:bf:35:
                    7c:2e:da:ed:ba:62:2e:1c:64:e4:0d:b3:e5:af:3e:
                    4f:d8:3d:3a:39:20:f3:45:31:d4:bd:a8:b0:26:05:
                    0f:fc:cc:f0:65:6b:a8:ba:dc:39:ef:6a:2a:49:64:
                    36:43
                Exponent: 65537 (0x10001)
        X509v3 extensions:
            X509v3 Subject Key Identifier: 
                4F:D0:CD:17:0A:79:B3:EF:5E:EA:BB:A1:7C:2C:74:E8:73:5E:52:D1
            X509v3 Authority Key Identifier: 
                keyid:4F:D0:CD:17:0A:79:B3:EF:5E:EA:BB:A1:7C:2C:74:E8:73:5E:52:D1

            X509v3 Basic Constraints: 
                CA:TRUE
    Signature Algorithm: sha256WithRSAEncryption
         05:fc:d3:ba:3d:38:d5:3c:3c:2f:16:9d:5a:fb:b5:10:d6:3b:
         90:93:84:bc:2f:ca:fc:54:c6:dd:a9:d9:8d:b2:55:95:33:35:
         23:38:b5:d7:e5:cd:03:bc:44:69:62:f1:0a:ae:e0:2b:e3:f3:
         49:35:a2:8a:66:d2:3a:d0:8c:65:f1:c0:64:ea:b3:ce:69:5a:
         d0:70:1c:be:aa:ae:fe:1f:47:40:82:42:77:dc:f6:13:eb:00:
         95:97:ac:32:fc:9a:46:d9:be:e9:a2:c7:a4:0a:f9:65:9d:50:
         9f:ec:55:09:78:fe:c5:37:6c:3a:01:c2:ee:a3:83:93:28:fe:
         93:27:c3:b8:70:5c:a3:72:42:bc:54:41:b3:60:b5:4f:9b:ab:
         1c:3a:c3:5e:54:93:19:71:1d:7a:e8:64:05:40:da:71:d8:74:
         34:77:7a:84:fb:e5:59:d5:dd:05:b8:92:2d:a4:50:48:a7:ef:
         ab:17:fa:c5:60:e9:80:01:5a:f0:2d:1d:30:5a:ed:45:cf:0a:
         8b:e9:f4:be:9c:1c:87:ee:6c:cf:68:34:b1:ad:1b:f6:d8:63:
         23:c8:58:d3:1c:83:58:ea:f7:8d:46:e2:91:05:8c:63:f3:c8:
         51:ed:51:49:80:16:c7:0a:de:68:e9:00:db:24:e6:52:1d:c9:
         60:19:2f:3b
-----BEGIN CERTIFICATE-----
MIIECzCCAvOgAwIBAgIJALvaFG69nog8MA0GCSqGSIb3DQEBCwUAMIGbMQswCQYD
VQQGEwJVUzELMAkGA1UECAwCQ0ExEjAQBgNVBAcMCUxvcyBBbHRvczEVMBMGA1UE
CgwMTWlzdCBTeXN0ZW1zMRQwEgYDVQQLDAtlbmdpbmVlcmluZzEZMBcGA1UEAwwQ
TmljIERhZGUgdGVzdCBDQTEjMCEGCSqGSIb3DQEJARYUbmljLmRhZGVAbWlzdHN5
cy5jb20wHhcNMTQxMjAzMDIwMDAzWhcNMjQxMTMwMDIwMDAzWjCBmzELMAkGA1UE
BhMCVVMxCzAJBgNVBAgMAkNBMRIwEAYDVQQHDAlMb3MgQWx0b3MxFTATBgNVBAoM
DE1pc3QgU3lzdGVtczEUMBIGA1UECwwLZW5naW5lZXJpbmcxGTAXBgNVBAMMEE5p
YyBEYWRlIHRlc3QgQ0ExIzAhBgkqhkiG9w0BCQEWFG5pYy5kYWRlQG1pc3RzeXMu
Y29tMIIBIjANBgkqhkiG9w0BAQEFAAOCAQ8AMIIBCgKCAQEA0aX4PRQptIYJACqn
VUSuVTwHI6e4xFp0mkVAQoNcz2puBazfiq5VdUw0USNTaaKHG/5AKPSsPdgrkA0z
8HdMjsn4TL1zjrQPj4D3XX0axAH0x9Pi+6OORB4U7w1RnLtFG9byUUh2n1KjPd7x
jkb9uKfd1pFc3ytqyUo/xQkOrLwdqWAuL9+fzCxhuBHPlwg+FTPVtB93G898c0vV
DLMfk8j/Y6Nr+kkz79KBq5mSXojwPhdJ8ZepCKs5ALABNccAgqE8ZF67r6KVOJAc
GS8nvzV8LtrtumIuHGTkDbPlrz5P2D06OSDzRTHUvaiwJgUP/MzwZWuoutw572oq
SWQ2QwIDAQABo1AwTjAdBgNVHQ4EFgQUT9DNFwp5s+9e6ruhfCx06HNeUtEwHwYD
VR0jBBgwFoAUT9DNFwp5s+9e6ruhfCx06HNeUtEwDAYDVR0TBAUwAwEB/zANBgkq
hkiG9w0BAQsFAAOCAQEABfzTuj041Tw8LxadWvu1ENY7kJOEvC/K/FTG3anZjbJV
lTM1Izi11+XNA7xEaWLxCq7gK+PzSTWiimbSOtCMZfHAZOqzzmla0HAcvqqu/h9H
QIJCd9z2E+sAlZesMvyaRtm+6aLHpAr5ZZ1Qn+xVCXj+xTdsOgHC7qODkyj+kyfD
uHBco3JCvFRBs2C1T5urHDrDXlSTGXEdeuhkBUDacdh0NHd6hPvlWdXdBbiSLaRQ
SKfvqxf6xWDpgAFa8C0dMFrtRc8Ki+n0vpwch+5sz2g0sa0b9thjI8hY0xyDWOr3
jUbikQWMY/PIUe1RSYAWxwreaOkA2yTmUh3JYBkvOw==
-----END CERTIFICATE-----

